; Function Attrs: mustprogress uwtable
define noundef zeroext i1 @_ZN4pkpy8NameExpr10emit_storeEPNS_15CodeEmitContextE(ptr noundef nonnull readonly align 8 captures(none) dereferenceable(20) %0, ptr noundef readonly captures(none) %1) unnamed_addr #5 align 2 {
  %3 = getelementptr inbounds nuw i8, ptr %1, i64 124
  %4 = load i8, ptr %3, align 4
  %5 = trunc i8 %4 to i1
  br i1 %5, label %6, label %12

6:                                                ; preds = %2
  %7 = getelementptr inbounds nuw i8, ptr %0, i64 12
  %8 = load i16, ptr %7, align 4
  %9 = getelementptr inbounds nuw i8, ptr %0, i64 8
  %10 = load i32, ptr %9, align 8
  %11 = tail call noundef i32 @_ZN4pkpy15CodeEmitContext5emit_ENS_6OpcodeEtib(ptr noundef nonnull align 8 dereferenceable(232) %1, i8 noundef zeroext 104, i16 noundef zeroext %8, i32 noundef %10, i1 noundef zeroext false)
  br label %18

12:                                               ; preds = %2
  %13 = getelementptr inbounds nuw i8, ptr %0, i64 16
  %14 = load i32, ptr %13, align 8
  %15 = getelementptr inbounds nuw i8, ptr %0, i64 12
  %.sroa.0.0.copyload = load i16, ptr %15, align 4
  %16 = getelementptr inbounds nuw i8, ptr %0, i64 8
  %17 = load i32, ptr %16, align 8
  tail call void @_ZN4pkpy15CodeEmitContext15emit_store_nameENS_9NameScopeENS_7StrNameEi(ptr noundef nonnull align 8 dereferenceable(232) %1, i32 noundef %14, i16 %.sroa.0.0.copyload, i32 noundef %17)
  br label %18

18:                                               ; preds = %12, %6
  ret i1 true
}